target datalayout = "e-m:e-p270:32:32-p271:32:32-p272:64:64-i64:64-i128:128-f80:128-n8:16:32:64-S128"
target triple = "x86_64-unknown-linux-gnu"

%struct.__va_list_tag = type { i32, i32, ptr, ptr }

@stderr = external global ptr, align 8
@.str = private unnamed_addr constant [2 x i8] c"\0A\00", align 1

; Function Attrs: noreturn nounwind uwtable
define dso_local void @error(ptr noundef %fmt, ...) #0 {
entry:
  %fmt.addr = alloca ptr, align 8
  %ap = alloca [1 x %struct.__va_list_tag], align 16
  store ptr %fmt, ptr %fmt.addr, align 8
  %arraydecay = getelementptr inbounds [1 x %struct.__va_list_tag], ptr %ap, i64 0, i64 0
  call void @llvm.va_start(ptr %arraydecay)
  %0 = load ptr, ptr @stderr, align 8
  %1 = load ptr, ptr %fmt.addr, align 8
  %arraydecay1 = getelementptr inbounds [1 x %struct.__va_list_tag], ptr %ap, i64 0, i64 0
  %call = call i32 @vfprintf(ptr noundef %0, ptr noundef %1, ptr noundef %arraydecay1)
  %2 = load ptr, ptr @stderr, align 8
  %call2 = call i32 (ptr, ptr, ...) @fprintf(ptr noundef %2, ptr noundef @.str)
  call void @exit(i32 noundef 1) #11
  unreachable
}