; Function Attrs: noreturn nounwind uwtable
define dso_local void @error(ptr nocapture noundef readonly %fmt, ...) local_unnamed_addr #0 {
entry:
  %ap = alloca [1 x %struct.__va_list_tag], align 16
  call void @llvm.va_start(ptr nonnull %ap)
  %0 = load ptr, ptr @stderr, align 8
  %call = call i32 @vfprintf(ptr noundef %0, ptr noundef %fmt, ptr noundef nonnull %ap) #23
  %1 = load ptr, ptr @stderr, align 8
  %fputc = call i32 @fputc(i32 10, ptr %1)
  call void @exit(i32 noundef 1) #24
  unreachable
}